; Function Attrs: nofree norecurse nosync nounwind uwtable
define range(i64 0, 4294967296) i64 @zfp_encode_block_strided_int64_3(ptr noundef readonly captures(none) %0, ptr noundef readonly captures(none) %1, i64 noundef %2, i64 noundef %3, i64 noundef %4) local_unnamed_addr #0 {
  %6 = alloca [64 x i64], align 256
  call void @llvm.lifetime.start.p0(i64 512, ptr nonnull %6) #7
  %7 = shl nsw i64 %2, 2
  %8 = sub nsw i64 %3, %7
  %9 = shl nsw i64 %3, 2
  %10 = sub nsw i64 %4, %9
  br label %.preheader21.i

.preheader21.i:                                   ; preds = %19, %5
  %.030.i = phi i32 [ 0, %5 ], [ %20, %19 ]
  %.01729.i = phi ptr [ %6, %5 ], [ %13, %19 ]
  %.01828.i = phi ptr [ %1, %5 ], [ %21, %19 ]
  br label %.preheader.i

.preheader.i:                                     ; preds = %16, %.preheader21.i
  %.01527.i = phi i32 [ 0, %.preheader21.i ], [ %17, %16 ]
  %.126.i = phi ptr [ %.01729.i, %.preheader21.i ], [ %13, %16 ]
  %.11925.i = phi ptr [ %.01828.i, %.preheader21.i ], [ %18, %16 ]
  br label %11

11:                                               ; preds = %11, %.preheader.i
  %.01624.i = phi i32 [ 0, %.preheader.i ], [ %14, %11 ]
  %.223.i = phi ptr [ %.126.i, %.preheader.i ], [ %13, %11 ]
  %.22022.i = phi ptr [ %.11925.i, %.preheader.i ], [ %15, %11 ]
  %12 = load i64, ptr %.22022.i, align 8, !tbaa !4
  %13 = getelementptr inbounds nuw i8, ptr %.223.i, i64 8
  store i64 %12, ptr %.223.i, align 8, !tbaa !4
  %14 = add nuw nsw i32 %.01624.i, 1
  %15 = getelementptr inbounds i64, ptr %.22022.i, i64 %2
  %exitcond.not.i = icmp eq i32 %14, 4
  br i1 %exitcond.not.i, label %16, label %11

16:                                               ; preds = %11
  %17 = add nuw nsw i32 %.01527.i, 1
  %18 = getelementptr inbounds i64, ptr %15, i64 %8
  %exitcond33.not.i = icmp eq i32 %17, 4
  br i1 %exitcond33.not.i, label %19, label %.preheader.i

19:                                               ; preds = %16
  %20 = add nuw nsw i32 %.030.i, 1
  %21 = getelementptr inbounds i64, ptr %18, i64 %10
  %exitcond34.not.i = icmp eq i32 %20, 4
  br i1 %exitcond34.not.i, label %gather_int64_3.exit, label %.preheader21.i

gather_int64_3.exit:                              ; preds = %19
  %22 = call i64 @zfp_encode_block_int64_3(ptr noundef %0, ptr noundef nonnull %6)
  call void @llvm.lifetime.end.p0(i64 512, ptr nonnull %6) #7
  ret i64 %22
}